target datalayout = "e-m:e-p270:32:32-p271:32:32-p272:64:64-i64:64-i128:128-f80:128-n8:16:32:64-S128"
target triple = "x86_64-pc-linux-gnu"

%struct.mbedtls_ssl_config = type { i32, i32, i8, i8, i8, i8, i8, i8, i8, i8, i8, i8, i16, i8, i8, i8, ptr, i32, ptr, ptr, ptr, ptr, ptr, ptr, ptr, ptr, ptr, ptr, ptr, ptr, ptr, ptr, ptr, ptr, ptr, ptr, ptr, i64, ptr, ptr, ptr, ptr, ptr, ptr, ptr, ptr, %struct.mbedtls_mpi, %struct.mbedtls_mpi, ptr, i64, ptr, i64, ptr, i32, i32, i32, i32, [8 x i8], i32, i32, %union.mbedtls_ssl_user_data_t, ptr, ptr }
%struct.mbedtls_mpi = type { ptr, i16, i16 }
%union.mbedtls_ssl_user_data_t = type { i64 }
%struct.mbedtls_ssl_context = type { ptr, i32, i32, i32, i32, i32, ptr, ptr, ptr, ptr, ptr, ptr, ptr, ptr, ptr, ptr, ptr, ptr, ptr, ptr, ptr, ptr, ptr, ptr, ptr, ptr, ptr, ptr, ptr, ptr, ptr, ptr, ptr, i32, i64, i64, i16, i64, i64, i64, i64, i32, i32, i8, i8, i32, i8, ptr, ptr, ptr, ptr, ptr, ptr, ptr, i32, i64, i64, [8 x i8], i16, ptr, ptr, ptr, i64, i32, i64, [12 x i8], [12 x i8], [32 x i8], i8, i8, ptr, ptr, %union.mbedtls_ssl_user_data_t }
%struct.mbedtls_ssl_session = type { i8, i8, i8, i32, i64, i32, i64, [32 x i8], [48 x i8], ptr, i32, ptr, i64, i32, i64, i32, i8, i8, [48 x i8], ptr, i64, i32, %struct.mbedtls_ssl_tls13_application_secrets }
%struct.mbedtls_ssl_tls13_application_secrets = type { [64 x i8], [64 x i8], [64 x i8], [64 x i8] }

; Function Attrs: nounwind uwtable
define hidden i32 @mbedtls_ssl_get_session(ptr noundef %0, ptr noundef %1) #0 {
  %3 = alloca i32, align 4
  %4 = alloca ptr, align 8
  %5 = alloca ptr, align 8
  %6 = alloca i32, align 4
  %7 = alloca i32, align 4
  store ptr %0, ptr %4, align 8, !tbaa !27
  store ptr %1, ptr %5, align 8, !tbaa !50
  call void @llvm.lifetime.start.p0(i64 4, ptr %6) #11
  %8 = load ptr, ptr %4, align 8, !tbaa !27
  %9 = icmp eq ptr %8, null
  br i1 %9, label %26, label %10

10:                                               ; preds = %2
  %11 = load ptr, ptr %5, align 8, !tbaa !50
  %12 = icmp eq ptr %11, null
  br i1 %12, label %26, label %13

13:                                               ; preds = %10
  %14 = load ptr, ptr %4, align 8, !tbaa !27
  %15 = getelementptr inbounds nuw %struct.mbedtls_ssl_context, ptr %14, i32 0, i32 14
  %16 = load ptr, ptr %15, align 8, !tbaa !147
  %17 = icmp eq ptr %16, null
  br i1 %17, label %26, label %18

18:                                               ; preds = %13
  %19 = load ptr, ptr %4, align 8, !tbaa !27
  %20 = getelementptr inbounds nuw %struct.mbedtls_ssl_context, ptr %19, i32 0, i32 0
  %21 = load ptr, ptr %20, align 8, !tbaa !30
  %22 = getelementptr inbounds nuw %struct.mbedtls_ssl_config, ptr %21, i32 0, i32 2
  %23 = load i8, ptr %22, align 8, !tbaa !110
  %24 = zext i8 %23 to i32
  %25 = icmp ne i32 %24, 0
  br i1 %25, label %26, label %27

26:                                               ; preds = %18, %13, %10, %2
  store i32 -28928, ptr %3, align 4
  store i32 1, ptr %7, align 4
  br label %51

27:                                               ; preds = %18
  %28 = load ptr, ptr %4, align 8, !tbaa !27
  %29 = getelementptr inbounds nuw %struct.mbedtls_ssl_context, ptr %28, i32 0, i32 14
  %30 = load ptr, ptr %29, align 8, !tbaa !147
  %31 = getelementptr inbounds nuw %struct.mbedtls_ssl_session, ptr %30, i32 0, i32 1
  %32 = load i8, ptr %31, align 1, !tbaa !247
  %33 = zext i8 %32 to i32
  %34 = icmp eq i32 %33, 1
  br i1 %34, label %35, label %36

35:                                               ; preds = %27
  store i32 -28800, ptr %3, align 4
  store i32 1, ptr %7, align 4
  br label %51

36:                                               ; preds = %27
  %37 = load ptr, ptr %5, align 8, !tbaa !50
  %38 = load ptr, ptr %4, align 8, !tbaa !27
  %39 = getelementptr inbounds nuw %struct.mbedtls_ssl_context, ptr %38, i32 0, i32 14
  %40 = load ptr, ptr %39, align 8, !tbaa !147
  %41 = call i32 @mbedtls_ssl_session_copy(ptr noundef %37, ptr noundef %40)
  store i32 %41, ptr %6, align 4, !tbaa !10
  %42 = load i32, ptr %6, align 4, !tbaa !10
  %43 = icmp ne i32 %42, 0
  br i1 %43, label %44, label %46

44:                                               ; preds = %36
  %45 = load i32, ptr %6, align 4, !tbaa !10
  store i32 %45, ptr %3, align 4
  store i32 1, ptr %7, align 4
  br label %51

46:                                               ; preds = %36
  %47 = load ptr, ptr %4, align 8, !tbaa !27
  %48 = getelementptr inbounds nuw %struct.mbedtls_ssl_context, ptr %47, i32 0, i32 14
  %49 = load ptr, ptr %48, align 8, !tbaa !147
  %50 = getelementptr inbounds nuw %struct.mbedtls_ssl_session, ptr %49, i32 0, i32 1
  store i8 1, ptr %50, align 1, !tbaa !247
  store i32 0, ptr %3, align 4
  store i32 1, ptr %7, align 4
  br label %51

51:                                               ; preds = %46, %44, %35, %26
  call void @llvm.lifetime.end.p0(i64 4, ptr %6) #11
  %52 = load i32, ptr %3, align 4
  ret i32 %52
}