; Function Attrs: nounwind uwtable
define hidden i32 @mbedtls_ssl_get_session(ptr noundef readonly %0, ptr noundef %1) local_unnamed_addr #1 {
  %3 = icmp eq ptr %0, null
  %4 = icmp eq ptr %1, null
  %or.cond = or i1 %3, %4
  br i1 %or.cond, label %22, label %5

5:                                                ; preds = %2
  %6 = getelementptr inbounds nuw i8, ptr %0, i64 96
  %7 = load ptr, ptr %6, align 8, !tbaa !126
  %8 = icmp eq ptr %7, null
  br i1 %8, label %22, label %9

9:                                                ; preds = %5
  %10 = load ptr, ptr %0, align 8, !tbaa !23
  %11 = getelementptr inbounds nuw i8, ptr %10, i64 8
  %12 = load i8, ptr %11, align 8, !tbaa !94
  %.not = icmp eq i8 %12, 0
  br i1 %.not, label %13, label %22

13:                                               ; preds = %9
  %14 = getelementptr inbounds nuw i8, ptr %7, i64 1
  %15 = load i8, ptr %14, align 1, !tbaa !213
  %16 = icmp eq i8 %15, 1
  br i1 %16, label %22, label %17

17:                                               ; preds = %13
  %18 = tail call i32 @mbedtls_ssl_session_copy(ptr noundef nonnull %1, ptr noundef nonnull %7)
  %.not15 = icmp eq i32 %18, 0
  br i1 %.not15, label %19, label %22

19:                                               ; preds = %17
  %20 = load ptr, ptr %6, align 8, !tbaa !126
  %21 = getelementptr inbounds nuw i8, ptr %20, i64 1
  store i8 1, ptr %21, align 1, !tbaa !213
  br label %22

22:                                               ; preds = %17, %13, %2, %5, %9, %19
  %.0 = phi i32 [ 0, %19 ], [ -28928, %9 ], [ -28928, %5 ], [ -28928, %2 ], [ -28800, %13 ], [ %18, %17 ]
  ret i32 %.0
}